target datalayout = "e-m:e-p270:32:32-p271:32:32-p272:64:64-i64:64-i128:128-f80:128-n8:16:32:64-S128"
target triple = "x86_64-pc-linux-gnu"

%struct.XML_Parser_Struct = type { i32, ptr, ptr, ptr, ptr, ptr, ptr, ptr, ptr, ptr, ptr, ptr, ptr, ptr, ptr }

; Function Attrs: nounwind uwtable
define internal void @unparsed_entity_decl_handler(ptr noundef %0, ptr noundef %1, ptr noundef %2, ptr noundef %3, ptr noundef %4) #0 {
  %6 = alloca ptr, align 8
  %7 = alloca ptr, align 8
  %8 = alloca ptr, align 8
  %9 = alloca ptr, align 8
  %10 = alloca ptr, align 8
  %11 = alloca ptr, align 8
  %12 = alloca i32, align 4
  store ptr %0, ptr %6, align 8, !tbaa !53
  store ptr %1, ptr %7, align 8, !tbaa !4
  store ptr %2, ptr %8, align 8, !tbaa !4
  store ptr %3, ptr %9, align 8, !tbaa !4
  store ptr %4, ptr %10, align 8, !tbaa !4
  call void @llvm.lifetime.start.p0(i64 8, ptr %11) #8
  %13 = load ptr, ptr %6, align 8, !tbaa !53
  store ptr %13, ptr %11, align 8, !tbaa !11
  %14 = load ptr, ptr %11, align 8, !tbaa !11
  %15 = getelementptr inbounds nuw %struct.XML_Parser_Struct, ptr %14, i32 0, i32 10
  %16 = load ptr, ptr %15, align 8, !tbaa !61
  %17 = icmp eq ptr %16, null
  br i1 %17, label %18, label %19

18:                                               ; preds = %5
  store i32 1, ptr %12, align 4
  br label %30

19:                                               ; preds = %5
  %20 = load ptr, ptr %11, align 8, !tbaa !11
  %21 = getelementptr inbounds nuw %struct.XML_Parser_Struct, ptr %20, i32 0, i32 10
  %22 = load ptr, ptr %21, align 8, !tbaa !61
  %23 = load ptr, ptr %11, align 8, !tbaa !11
  %24 = getelementptr inbounds nuw %struct.XML_Parser_Struct, ptr %23, i32 0, i32 2
  %25 = load ptr, ptr %24, align 8, !tbaa !54
  %26 = load ptr, ptr %7, align 8, !tbaa !4
  %27 = load ptr, ptr %9, align 8, !tbaa !4
  %28 = load ptr, ptr %8, align 8, !tbaa !4
  %29 = load ptr, ptr %10, align 8, !tbaa !4
  call void %22(ptr noundef %25, ptr noundef %26, ptr noundef null, ptr noundef %27, ptr noundef %28, ptr noundef %29)
  store i32 0, ptr %12, align 4
  br label %30

30:                                               ; preds = %19, %18
  call void @llvm.lifetime.end.p0(i64 8, ptr %11) #8
  %31 = load i32, ptr %12, align 4
  switch i32 %31, label %33 [
    i32 0, label %32
    i32 1, label %32
  ]

32:                                               ; preds = %30, %30
  ret void

33:                                               ; preds = %30
  unreachable
}