; Function Attrs: nounwind uwtable
define internal void @unparsed_entity_decl_handler(ptr noundef readonly captures(none) %0, ptr noundef %1, ptr noundef %2, ptr noundef %3, ptr noundef %4) #0 {
  %6 = getelementptr inbounds nuw i8, ptr %0, i64 80
  %7 = load ptr, ptr %6, align 8, !tbaa !54
  %8 = icmp eq ptr %7, null
  br i1 %8, label %12, label %9

9:                                                ; preds = %5
  %10 = getelementptr inbounds nuw i8, ptr %0, i64 16
  %11 = load ptr, ptr %10, align 8, !tbaa !47
  tail call void %7(ptr noundef %11, ptr noundef %1, ptr noundef null, ptr noundef %3, ptr noundef %2, ptr noundef %4) #11
  br label %12

12:                                               ; preds = %5, %9
  ret void
}